; Function Attrs: mustprogress uwtable
define internal fastcc void @"_ZZN8facebook5velox10serializer6presto12_GLOBAL__N_110readValuesINS0_9TimestampEEEvPNS0_15ByteInputStreamEiiN5boost13intrusive_ptrINS0_6BufferEEEiSB_ENK3$_0clEi"(ptr nocapture noundef nonnull readonly align 8 dereferenceable(24) %this, i32 noundef %row) unnamed_addr #0 align 2 {
entry:
  %0 = load ptr, ptr %this, align 8
  %1 = load i32, ptr %0, align 4
  %cmp3 = icmp slt i32 %1, %row
  br i1 %cmp3, label %for.body.lr.ph, label %for.end

for.body.lr.ph:                                   ; preds = %entry
  %2 = getelementptr inbounds i8, ptr %this, i64 8
  br label %for.body

for.body:                                         ; preds = %for.body.lr.ph, %for.body
  %3 = phi i32 [ %1, %for.body.lr.ph ], [ %9, %for.body ]
  %4 = load ptr, ptr %2, align 8
  %5 = load ptr, ptr %4, align 8
  %idxprom = sext i32 %3 to i64
  %arrayidx = getelementptr inbounds %"struct.facebook::velox::Timestamp", ptr %5, i64 %idxprom
  tail call void @llvm.memset.p0.i64(ptr noundef nonnull align 8 dereferenceable(16) %arrayidx, i8 0, i64 16, i1 false)
  %6 = load ptr, ptr %this, align 8
  %7 = load i32, ptr %6, align 4
  %inc = add nsw i32 %7, 1
  store i32 %inc, ptr %6, align 4
  %8 = load ptr, ptr %this, align 8
  %9 = load i32, ptr %8, align 4
  %cmp = icmp slt i32 %9, %row
  br i1 %cmp, label %for.body, label %for.end, !llvm.loop !458

for.end:                                          ; preds = %for.body, %entry
  %10 = getelementptr inbounds i8, ptr %this, i64 16
  %11 = load ptr, ptr %10, align 8
  %12 = load ptr, ptr %11, align 8
  %current_.i.i = getelementptr inbounds i8, ptr %12, i64 32
  %13 = load ptr, ptr %current_.i.i, align 8
  %position.i.i = getelementptr inbounds i8, ptr %13, i64 12
  %14 = load i32, ptr %position.i.i, align 4
  %conv.i.i = sext i32 %14 to i64
  %add.i.i = add nsw i64 %conv.i.i, 8
  %size.i.i = getelementptr inbounds i8, ptr %13, i64 8
  %15 = load i32, ptr %size.i.i, align 8
  %conv3.i.i = sext i32 %15 to i64
  %cmp.not.i.i = icmp ugt i64 %add.i.i, %conv3.i.i
  br i1 %cmp.not.i.i, label %for.body.i.i, label %if.then.i.i

if.then.i.i:                                      ; preds = %for.end
  %conv8.i.i = trunc i64 %add.i.i to i32
  store i32 %conv8.i.i, ptr %position.i.i, align 4
  %16 = load ptr, ptr %current_.i.i, align 8
  %17 = load ptr, ptr %16, align 8
  %position11.i.i = getelementptr inbounds i8, ptr %16, i64 12
  %18 = load i32, ptr %position11.i.i, align 4
  %idx.ext.i.i = sext i32 %18 to i64
  %add.ptr.i.i = getelementptr inbounds i8, ptr %17, i64 %idx.ext.i.i
  %add.ptr12.i.i = getelementptr inbounds i8, ptr %add.ptr.i.i, i64 -8
  %19 = load i64, ptr %add.ptr12.i.i, align 8
  br label %_ZN8facebook5velox15ByteInputStream4readIlEET_v.exit.i

for.body.i.i:                                     ; preds = %for.end, %for.body.i.i
  %indvars.iv.i.i = phi i64 [ %indvars.iv.next.i.i, %for.body.i.i ], [ 0, %for.end ]
  %value.04.i.i = phi i64 [ %or.i.i, %for.body.i.i ], [ 0, %for.end ]
  %call.i.i = tail call noundef zeroext i8 @_ZN8facebook5velox15ByteInputStream8readByteEv(ptr noundef nonnull align 8 dereferenceable(40) %12)
  %conv15.i.i = zext i8 %call.i.i to i64
  %20 = shl nuw nsw i64 %indvars.iv.i.i, 3
  %shl.i.i = shl nuw i64 %conv15.i.i, %20
  %or.i.i = or i64 %shl.i.i, %value.04.i.i
  %indvars.iv.next.i.i = add nuw nsw i64 %indvars.iv.i.i, 1
  %exitcond.not.i.i = icmp eq i64 %indvars.iv.next.i.i, 8
  br i1 %exitcond.not.i.i, label %_ZN8facebook5velox15ByteInputStream4readIlEET_v.exit.i, label %for.body.i.i, !llvm.loop !123

_ZN8facebook5velox15ByteInputStream4readIlEET_v.exit.i: ; preds = %for.body.i.i, %if.then.i.i
  %retval.0.i.i = phi i64 [ %19, %if.then.i.i ], [ %or.i.i, %for.body.i.i ]
  %cmp.i.i = icmp sgt i64 %retval.0.i.i, -1
  %rem.i.i = srem i64 %retval.0.i.i, 1000
  %div.i.i = sdiv i64 %retval.0.i.i, 1000
  %cmp1.i.i = icmp eq i64 %rem.i.i, 0
  %or.cond.i.i = or i1 %cmp.i.i, %cmp1.i.i
  br i1 %or.cond.i.i, label %_ZN8facebook5velox10serializer6presto12_GLOBAL__N_113readTimestampEPNS0_15ByteInputStreamE.exit, label %if.end.i.i

if.end.i.i:                                       ; preds = %_ZN8facebook5velox15ByteInputStream4readIlEET_v.exit.i
  %millis.nonneg.i.i = sub i64 0, %retval.0.i.i
  %div38.i.i = udiv i64 %millis.nonneg.i.i, 1000
  %sub.i.i = xor i64 %div38.i.i, -1
  %mul4.neg.i.i = mul i64 %sub.i.i, -1000
  %sub5.i.i = add i64 %mul4.neg.i.i, %retval.0.i.i
  %rem6.i.i = srem i64 %sub5.i.i, 1000
  br label %_ZN8facebook5velox10serializer6presto12_GLOBAL__N_113readTimestampEPNS0_15ByteInputStreamE.exit

_ZN8facebook5velox10serializer6presto12_GLOBAL__N_113readTimestampEPNS0_15ByteInputStreamE.exit: ; preds = %_ZN8facebook5velox15ByteInputStream4readIlEET_v.exit.i, %if.end.i.i
  %retval.sroa.3.0.in.i.i = phi i64 [ %rem6.i.i, %if.end.i.i ], [ %rem.i.i, %_ZN8facebook5velox15ByteInputStream4readIlEET_v.exit.i ]
  %retval.sroa.0.0.i.i = phi i64 [ %sub.i.i, %if.end.i.i ], [ %div.i.i, %_ZN8facebook5velox15ByteInputStream4readIlEET_v.exit.i ]
  %retval.sroa.3.0.i.i = mul nsw i64 %retval.sroa.3.0.in.i.i, 1000000
  %21 = getelementptr inbounds i8, ptr %this, i64 8
  %22 = load ptr, ptr %21, align 8
  %23 = load ptr, ptr %22, align 8
  %idxprom3 = sext i32 %row to i64
  %arrayidx4 = getelementptr inbounds %"struct.facebook::velox::Timestamp", ptr %23, i64 %idxprom3
  store i64 %retval.sroa.0.0.i.i, ptr %arrayidx4, align 8
  %ref.tmp2.sroa.2.0.arrayidx4.sroa_idx = getelementptr inbounds i8, ptr %arrayidx4, i64 8
  store i64 %retval.sroa.3.0.i.i, ptr %ref.tmp2.sroa.2.0.arrayidx4.sroa_idx, align 8
  %add = add nsw i32 %row, 1
  %24 = load ptr, ptr %this, align 8
  store i32 %add, ptr %24, align 4
  ret void
}